target datalayout = "e-m:e-p270:32:32-p271:32:32-p272:64:64-i64:64-i128:128-f80:128-n8:16:32:64-S128"
target triple = "x86_64-pc-linux-gnu"

@hf_mysql_exec_field_datetime_length = internal global i32 0, align 4
@hf_mysql_exec_field_year = internal global i32 0, align 4
@hf_mysql_exec_field_month = internal global i32 0, align 4
@hf_mysql_exec_field_day = internal global i32 0, align 4
@hf_mysql_exec_field_hour = internal global i32 0, align 4
@hf_mysql_exec_field_minute = internal global i32 0, align 4
@hf_mysql_exec_field_second = internal global i32 0, align 4
@hf_mysql_exec_field_second_b = internal global i32 0, align 4

; Function Attrs: null_pointer_is_valid sspstrong uwtable
define internal void @mysql_dissect_exec_datetime(ptr noundef %0, ptr noundef %1, ptr noundef %2, ptr noundef %3, i32 noundef %4) #0 {
  %6 = alloca ptr, align 8
  %7 = alloca ptr, align 8
  %8 = alloca ptr, align 8
  %9 = alloca ptr, align 8
  %10 = alloca i32, align 4
  %11 = alloca i8, align 1
  store ptr %0, ptr %6, align 8
  store ptr %1, ptr %7, align 8
  store ptr %2, ptr %8, align 8
  store ptr %3, ptr %9, align 8
  store i32 %4, ptr %10, align 4
  call void @llvm.lifetime.start.p0(i64 1, ptr %11) #11
  %12 = load ptr, ptr %6, align 8
  %13 = load ptr, ptr %8, align 8
  %14 = load i32, ptr %13, align 4
  %15 = call zeroext i8 @tvb_get_uint8(ptr noundef %12, i32 noundef %14)
  store i8 %15, ptr %11, align 1
  %16 = load ptr, ptr %9, align 8
  %17 = load i32, ptr @hf_mysql_exec_field_datetime_length, align 4
  %18 = load ptr, ptr %6, align 8
  %19 = load ptr, ptr %8, align 8
  %20 = load i32, ptr %19, align 4
  %21 = call ptr @proto_tree_add_item(ptr noundef %16, i32 noundef %17, ptr noundef %18, i32 noundef %20, i32 noundef 1, i32 noundef 0)
  %22 = load ptr, ptr %8, align 8
  %23 = load i32, ptr %22, align 4
  %24 = add i32 %23, 1
  store i32 %24, ptr %22, align 4
  %25 = load i8, ptr %11, align 1
  %26 = zext i8 %25 to i32
  %27 = icmp sge i32 %26, 2
  br i1 %27, label %28, label %35

28:                                               ; preds = %5
  %29 = load ptr, ptr %9, align 8
  %30 = load i32, ptr @hf_mysql_exec_field_year, align 4
  %31 = load ptr, ptr %6, align 8
  %32 = load ptr, ptr %8, align 8
  %33 = load i32, ptr %32, align 4
  %34 = call ptr @proto_tree_add_item(ptr noundef %29, i32 noundef %30, ptr noundef %31, i32 noundef %33, i32 noundef 2, i32 noundef -2147483648)
  br label %35

35:                                               ; preds = %28, %5
  %36 = load i8, ptr %11, align 1
  %37 = zext i8 %36 to i32
  %38 = icmp sge i32 %37, 4
  br i1 %38, label %39, label %54

39:                                               ; preds = %35
  %40 = load ptr, ptr %9, align 8
  %41 = load i32, ptr @hf_mysql_exec_field_month, align 4
  %42 = load ptr, ptr %6, align 8
  %43 = load ptr, ptr %8, align 8
  %44 = load i32, ptr %43, align 4
  %45 = add i32 %44, 2
  %46 = call ptr @proto_tree_add_item(ptr noundef %40, i32 noundef %41, ptr noundef %42, i32 noundef %45, i32 noundef 1, i32 noundef 0)
  %47 = load ptr, ptr %9, align 8
  %48 = load i32, ptr @hf_mysql_exec_field_day, align 4
  %49 = load ptr, ptr %6, align 8
  %50 = load ptr, ptr %8, align 8
  %51 = load i32, ptr %50, align 4
  %52 = add i32 %51, 3
  %53 = call ptr @proto_tree_add_item(ptr noundef %47, i32 noundef %48, ptr noundef %49, i32 noundef %52, i32 noundef 1, i32 noundef 0)
  br label %54

54:                                               ; preds = %39, %35
  %55 = load i8, ptr %11, align 1
  %56 = zext i8 %55 to i32
  %57 = icmp sge i32 %56, 7
  br i1 %57, label %58, label %80

58:                                               ; preds = %54
  %59 = load ptr, ptr %9, align 8
  %60 = load i32, ptr @hf_mysql_exec_field_hour, align 4
  %61 = load ptr, ptr %6, align 8
  %62 = load ptr, ptr %8, align 8
  %63 = load i32, ptr %62, align 4
  %64 = add i32 %63, 4
  %65 = call ptr @proto_tree_add_item(ptr noundef %59, i32 noundef %60, ptr noundef %61, i32 noundef %64, i32 noundef 1, i32 noundef 0)
  %66 = load ptr, ptr %9, align 8
  %67 = load i32, ptr @hf_mysql_exec_field_minute, align 4
  %68 = load ptr, ptr %6, align 8
  %69 = load ptr, ptr %8, align 8
  %70 = load i32, ptr %69, align 4
  %71 = add i32 %70, 5
  %72 = call ptr @proto_tree_add_item(ptr noundef %66, i32 noundef %67, ptr noundef %68, i32 noundef %71, i32 noundef 1, i32 noundef 0)
  %73 = load ptr, ptr %9, align 8
  %74 = load i32, ptr @hf_mysql_exec_field_second, align 4
  %75 = load ptr, ptr %6, align 8
  %76 = load ptr, ptr %8, align 8
  %77 = load i32, ptr %76, align 4
  %78 = add i32 %77, 6
  %79 = call ptr @proto_tree_add_item(ptr noundef %73, i32 noundef %74, ptr noundef %75, i32 noundef %78, i32 noundef 1, i32 noundef 0)
  br label %80

80:                                               ; preds = %58, %54
  %81 = load i8, ptr %11, align 1
  %82 = zext i8 %81 to i32
  %83 = icmp sge i32 %82, 11
  br i1 %83, label %84, label %92

84:                                               ; preds = %80
  %85 = load ptr, ptr %9, align 8
  %86 = load i32, ptr @hf_mysql_exec_field_second_b, align 4
  %87 = load ptr, ptr %6, align 8
  %88 = load ptr, ptr %8, align 8
  %89 = load i32, ptr %88, align 4
  %90 = add i32 %89, 7
  %91 = call ptr @proto_tree_add_item(ptr noundef %85, i32 noundef %86, ptr noundef %87, i32 noundef %90, i32 noundef 4, i32 noundef -2147483648)
  br label %92

92:                                               ; preds = %84, %80
  %93 = load i8, ptr %11, align 1
  %94 = zext i8 %93 to i32
  %95 = load ptr, ptr %8, align 8
  %96 = load i32, ptr %95, align 4
  %97 = add i32 %96, %94
  store i32 %97, ptr %95, align 4
  call void @llvm.lifetime.end.p0(i64 1, ptr %11) #11
  ret void
}