; Function Attrs: null_pointer_is_valid sspstrong uwtable
define internal void @mysql_dissect_exec_datetime(ptr noundef %0, ptr readnone captures(none) %1, ptr noundef captures(none) %2, ptr noundef %3, i32 %4) #0 {
  %6 = load i32, ptr %2, align 4
  %7 = tail call zeroext i8 @tvb_get_uint8(ptr noundef %0, i32 noundef %6)
  %8 = load i32, ptr @hf_mysql_exec_field_datetime_length, align 4
  %9 = load i32, ptr %2, align 4
  %10 = tail call ptr @proto_tree_add_item(ptr noundef %3, i32 noundef %8, ptr noundef %0, i32 noundef %9, i32 noundef 1, i32 noundef 0)
  %11 = load i32, ptr %2, align 4
  %12 = add i32 %11, 1
  store i32 %12, ptr %2, align 4
  %13 = icmp ugt i8 %7, 1
  br i1 %13, label %14, label %.thread34

14:                                               ; preds = %5
  %15 = load i32, ptr @hf_mysql_exec_field_year, align 4
  %16 = tail call ptr @proto_tree_add_item(ptr noundef %3, i32 noundef %15, ptr noundef %0, i32 noundef %12, i32 noundef 2, i32 noundef -2147483648)
  %17 = icmp ugt i8 %7, 3
  %.pre35 = load i32, ptr %2, align 4
  br i1 %17, label %18, label %.thread34

18:                                               ; preds = %14
  %19 = load i32, ptr @hf_mysql_exec_field_month, align 4
  %20 = add i32 %.pre35, 2
  %21 = tail call ptr @proto_tree_add_item(ptr noundef %3, i32 noundef %19, ptr noundef %0, i32 noundef %20, i32 noundef 1, i32 noundef 0)
  %22 = load i32, ptr @hf_mysql_exec_field_day, align 4
  %23 = load i32, ptr %2, align 4
  %24 = add i32 %23, 3
  %25 = tail call ptr @proto_tree_add_item(ptr noundef %3, i32 noundef %22, ptr noundef %0, i32 noundef %24, i32 noundef 1, i32 noundef 0)
  %26 = icmp ugt i8 %7, 6
  %.pre36 = load i32, ptr %2, align 4
  br i1 %26, label %27, label %.thread34

27:                                               ; preds = %18
  %28 = load i32, ptr @hf_mysql_exec_field_hour, align 4
  %29 = add i32 %.pre36, 4
  %30 = tail call ptr @proto_tree_add_item(ptr noundef %3, i32 noundef %28, ptr noundef %0, i32 noundef %29, i32 noundef 1, i32 noundef 0)
  %31 = load i32, ptr @hf_mysql_exec_field_minute, align 4
  %32 = load i32, ptr %2, align 4
  %33 = add i32 %32, 5
  %34 = tail call ptr @proto_tree_add_item(ptr noundef %3, i32 noundef %31, ptr noundef %0, i32 noundef %33, i32 noundef 1, i32 noundef 0)
  %35 = load i32, ptr @hf_mysql_exec_field_second, align 4
  %36 = load i32, ptr %2, align 4
  %37 = add i32 %36, 6
  %38 = tail call ptr @proto_tree_add_item(ptr noundef %3, i32 noundef %35, ptr noundef %0, i32 noundef %37, i32 noundef 1, i32 noundef 0)
  %39 = icmp ugt i8 %7, 10
  %.pre37 = load i32, ptr %2, align 4
  br i1 %39, label %40, label %.thread34

40:                                               ; preds = %27
  %41 = load i32, ptr @hf_mysql_exec_field_second_b, align 4
  %42 = add i32 %.pre37, 7
  %43 = tail call ptr @proto_tree_add_item(ptr noundef %3, i32 noundef %41, ptr noundef %0, i32 noundef %42, i32 noundef 4, i32 noundef -2147483648)
  %.pre = load i32, ptr %2, align 4
  br label %.thread34

.thread34:                                        ; preds = %5, %14, %18, %40, %27
  %44 = phi i32 [ %12, %5 ], [ %.pre35, %14 ], [ %.pre36, %18 ], [ %.pre, %40 ], [ %.pre37, %27 ]
  %45 = zext i8 %7 to i32
  %46 = add i32 %44, %45
  store i32 %46, ptr %2, align 4
  ret void
}